target datalayout = "e-m:e-p270:32:32-p271:32:32-p272:64:64-i64:64-i128:128-f80:128-n8:16:32:64-S128"
target triple = "x86_64-pc-linux-gnu"

%struct.PJconsts = type { ptr, ptr, ptr, ptr, ptr, ptr, ptr, ptr, ptr, ptr, ptr, ptr, i32, ptr, ptr, ptr, ptr, ptr, ptr, ptr, ptr, double, double, double, double, double, double, double, double, double, double, double, double, double, double, double, double, double, double, double, double, double, double, i32, i32, i32, i32, i32, i32, i32, i32, i32, i32, i32, ptr, ptr, ptr, ptr, ptr, ptr, double, double, double, double, double, double, double, double, double, double, double, i32, [7 x double], i32, ptr, ptr, double, double, i32, [4 x i8], %"class.std::shared_ptr", i8, double, i8, %"class.std::__cxx11::basic_string", %"class.std::__cxx11::basic_string", %"class.std::__cxx11::basic_string", i8, %"class.std::vector", i32, %"class.std::vector.3", i32, i8, i8, i8, ptr }
%"class.std::shared_ptr" = type { %"class.std::__shared_ptr" }
%"class.std::__shared_ptr" = type { ptr, %"class.std::__shared_count" }
%"class.std::__shared_count" = type { ptr }
%"class.std::__cxx11::basic_string" = type { %"struct.std::__cxx11::basic_string<char>::_Alloc_hider", i64, %union.anon }
%"struct.std::__cxx11::basic_string<char>::_Alloc_hider" = type { ptr }
%union.anon = type { i64, [8 x i8] }
%"class.std::vector" = type { %"struct.std::_Vector_base" }
%"struct.std::_Vector_base" = type { %"struct.std::_Vector_base<osgeo::proj::operation::GridDescription, std::allocator<osgeo::proj::operation::GridDescription>>::_Vector_impl" }
%"struct.std::_Vector_base<osgeo::proj::operation::GridDescription, std::allocator<osgeo::proj::operation::GridDescription>>::_Vector_impl" = type { %"struct.std::_Vector_base<osgeo::proj::operation::GridDescription, std::allocator<osgeo::proj::operation::GridDescription>>::_Vector_impl_data" }
%"struct.std::_Vector_base<osgeo::proj::operation::GridDescription, std::allocator<osgeo::proj::operation::GridDescription>>::_Vector_impl_data" = type { ptr, ptr, ptr }
%"class.std::vector.3" = type { %"struct.std::_Vector_base.4" }
%"struct.std::_Vector_base.4" = type { %"struct.std::_Vector_base<PJCoordOperation, std::allocator<PJCoordOperation>>::_Vector_impl" }
%"struct.std::_Vector_base<PJCoordOperation, std::allocator<PJCoordOperation>>::_Vector_impl" = type { %"struct.std::_Vector_base<PJCoordOperation, std::allocator<PJCoordOperation>>::_Vector_impl_data" }
%"struct.std::_Vector_base<PJCoordOperation, std::allocator<PJCoordOperation>>::_Vector_impl_data" = type { ptr, ptr, ptr }
%"struct.(anonymous namespace)::pj_gnom_data" = type { double, double, i32, %struct.geod_geodesic }
%struct.geod_geodesic = type { double, double, double, double, double, double, double, double, double, [6 x double], [15 x double], [21 x double] }
%struct.PJ_LP = type { double, double }
%struct.PJ_XY = type { double, double }

; Function Attrs: mustprogress uwtable
define internal { double, double } @_ZL14gnom_s_forward5PJ_LPP8PJconsts(double %0, double %1, ptr noundef %2) #0 {
  %4 = alloca %struct.PJ_XY, align 8
  %5 = alloca %struct.PJ_LP, align 8
  %6 = alloca ptr, align 8
  %7 = alloca ptr, align 8
  %8 = alloca double, align 8
  %9 = alloca double, align 8
  %10 = alloca double, align 8
  %11 = alloca i32, align 4
  %12 = getelementptr inbounds nuw { double, double }, ptr %5, i32 0, i32 0
  store double %0, ptr %12, align 8
  %13 = getelementptr inbounds nuw { double, double }, ptr %5, i32 0, i32 1
  store double %1, ptr %13, align 8
  store ptr %2, ptr %6, align 8, !tbaa !3
  call void @llvm.memset.p0.i64(ptr align 8 %4, i8 0, i64 16, i1 false)
  call void @llvm.lifetime.start.p0(i64 8, ptr %7) #8
  %14 = load ptr, ptr %6, align 8, !tbaa !3
  %15 = getelementptr inbounds nuw %struct.PJconsts, ptr %14, i32 0, i32 11
  %16 = load ptr, ptr %15, align 8, !tbaa !43
  store ptr %16, ptr %7, align 8, !tbaa !41
  call void @llvm.lifetime.start.p0(i64 8, ptr %8) #8
  call void @llvm.lifetime.start.p0(i64 8, ptr %9) #8
  call void @llvm.lifetime.start.p0(i64 8, ptr %10) #8
  %17 = getelementptr inbounds nuw %struct.PJ_LP, ptr %5, i32 0, i32 1
  %18 = load double, ptr %17, align 8, !tbaa !60
  %19 = call double @sin(double noundef %18) #8, !tbaa !50
  store double %19, ptr %10, align 8, !tbaa !59
  %20 = getelementptr inbounds nuw %struct.PJ_LP, ptr %5, i32 0, i32 1
  %21 = load double, ptr %20, align 8, !tbaa !60
  %22 = call double @cos(double noundef %21) #8, !tbaa !50
  store double %22, ptr %9, align 8, !tbaa !59
  %23 = getelementptr inbounds nuw %struct.PJ_LP, ptr %5, i32 0, i32 0
  %24 = load double, ptr %23, align 8, !tbaa !62
  %25 = call double @cos(double noundef %24) #8, !tbaa !50
  store double %25, ptr %8, align 8, !tbaa !59
  %26 = load ptr, ptr %7, align 8, !tbaa !41
  %27 = getelementptr inbounds nuw %"struct.(anonymous namespace)::pj_gnom_data", ptr %26, i32 0, i32 2
  %28 = load i32, ptr %27, align 8, !tbaa !46
  switch i32 %28, label %55 [
    i32 2, label %29
    i32 3, label %34
    i32 1, label %48
    i32 0, label %52
  ]

29:                                               ; preds = %3
  %30 = load double, ptr %9, align 8, !tbaa !59
  %31 = load double, ptr %8, align 8, !tbaa !59
  %32 = fmul double %30, %31
  %33 = getelementptr inbounds nuw %struct.PJ_XY, ptr %4, i32 0, i32 1
  store double %32, ptr %33, align 8, !tbaa !58
  br label %55

34:                                               ; preds = %3
  %35 = load ptr, ptr %7, align 8, !tbaa !41
  %36 = getelementptr inbounds nuw %"struct.(anonymous namespace)::pj_gnom_data", ptr %35, i32 0, i32 0
  %37 = load double, ptr %36, align 8, !tbaa !51
  %38 = load double, ptr %10, align 8, !tbaa !59
  %39 = load ptr, ptr %7, align 8, !tbaa !41
  %40 = getelementptr inbounds nuw %"struct.(anonymous namespace)::pj_gnom_data", ptr %39, i32 0, i32 1
  %41 = load double, ptr %40, align 8, !tbaa !52
  %42 = load double, ptr %9, align 8, !tbaa !59
  %43 = fmul double %41, %42
  %44 = load double, ptr %8, align 8, !tbaa !59
  %45 = fmul double %43, %44
  %46 = call double @llvm.fmuladd.f64(double %37, double %38, double %45)
  %47 = getelementptr inbounds nuw %struct.PJ_XY, ptr %4, i32 0, i32 1
  store double %46, ptr %47, align 8, !tbaa !58
  br label %55

48:                                               ; preds = %3
  %49 = load double, ptr %10, align 8, !tbaa !59
  %50 = fneg double %49
  %51 = getelementptr inbounds nuw %struct.PJ_XY, ptr %4, i32 0, i32 1
  store double %50, ptr %51, align 8, !tbaa !58
  br label %55

52:                                               ; preds = %3
  %53 = load double, ptr %10, align 8, !tbaa !59
  %54 = getelementptr inbounds nuw %struct.PJ_XY, ptr %4, i32 0, i32 1
  store double %53, ptr %54, align 8, !tbaa !58
  br label %55

55:                                               ; preds = %3, %52, %48, %34, %29
  %56 = getelementptr inbounds nuw %struct.PJ_XY, ptr %4, i32 0, i32 1
  %57 = load double, ptr %56, align 8, !tbaa !58
  %58 = fcmp ole double %57, 1.000000e-10
  br i1 %58, label %59, label %62

59:                                               ; preds = %55
  %60 = load ptr, ptr %6, align 8, !tbaa !3
  %61 = call i32 @proj_errno_set(ptr noundef %60, i32 noundef 2050)
  store i32 1, ptr %11, align 4
  br label %110

62:                                               ; preds = %55
  %63 = getelementptr inbounds nuw %struct.PJ_XY, ptr %4, i32 0, i32 1
  %64 = load double, ptr %63, align 8, !tbaa !58
  %65 = fdiv double 1.000000e+00, %64
  %66 = getelementptr inbounds nuw %struct.PJ_XY, ptr %4, i32 0, i32 1
  store double %65, ptr %66, align 8, !tbaa !58
  %67 = load double, ptr %9, align 8, !tbaa !59
  %68 = fmul double %65, %67
  %69 = getelementptr inbounds nuw %struct.PJ_LP, ptr %5, i32 0, i32 0
  %70 = load double, ptr %69, align 8, !tbaa !62
  %71 = call double @sin(double noundef %70) #8, !tbaa !50
  %72 = fmul double %68, %71
  %73 = getelementptr inbounds nuw %struct.PJ_XY, ptr %4, i32 0, i32 0
  store double %72, ptr %73, align 8, !tbaa !56
  %74 = load ptr, ptr %7, align 8, !tbaa !41
  %75 = getelementptr inbounds nuw %"struct.(anonymous namespace)::pj_gnom_data", ptr %74, i32 0, i32 2
  %76 = load i32, ptr %75, align 8, !tbaa !46
  switch i32 %76, label %109 [
    i32 2, label %77
    i32 3, label %82
    i32 0, label %99
    i32 1, label %102
  ]

77:                                               ; preds = %62
  %78 = load double, ptr %10, align 8, !tbaa !59
  %79 = getelementptr inbounds nuw %struct.PJ_XY, ptr %4, i32 0, i32 1
  %80 = load double, ptr %79, align 8, !tbaa !58
  %81 = fmul double %80, %78
  store double %81, ptr %79, align 8, !tbaa !58
  br label %109

82:                                               ; preds = %62
  %83 = load ptr, ptr %7, align 8, !tbaa !41
  %84 = getelementptr inbounds nuw %"struct.(anonymous namespace)::pj_gnom_data", ptr %83, i32 0, i32 1
  %85 = load double, ptr %84, align 8, !tbaa !52
  %86 = load double, ptr %10, align 8, !tbaa !59
  %87 = load ptr, ptr %7, align 8, !tbaa !41
  %88 = getelementptr inbounds nuw %"struct.(anonymous namespace)::pj_gnom_data", ptr %87, i32 0, i32 0
  %89 = load double, ptr %88, align 8, !tbaa !51
  %90 = load double, ptr %9, align 8, !tbaa !59
  %91 = fmul double %89, %90
  %92 = load double, ptr %8, align 8, !tbaa !59
  %93 = fmul double %91, %92
  %94 = fneg double %93
  %95 = call double @llvm.fmuladd.f64(double %85, double %86, double %94)
  %96 = getelementptr inbounds nuw %struct.PJ_XY, ptr %4, i32 0, i32 1
  %97 = load double, ptr %96, align 8, !tbaa !58
  %98 = fmul double %97, %95
  store double %98, ptr %96, align 8, !tbaa !58
  br label %109

99:                                               ; preds = %62
  %100 = load double, ptr %8, align 8, !tbaa !59
  %101 = fneg double %100
  store double %101, ptr %8, align 8, !tbaa !59
  br label %102

102:                                              ; preds = %62, %99
  %103 = load double, ptr %9, align 8, !tbaa !59
  %104 = load double, ptr %8, align 8, !tbaa !59
  %105 = fmul double %103, %104
  %106 = getelementptr inbounds nuw %struct.PJ_XY, ptr %4, i32 0, i32 1
  %107 = load double, ptr %106, align 8, !tbaa !58
  %108 = fmul double %107, %105
  store double %108, ptr %106, align 8, !tbaa !58
  br label %109

109:                                              ; preds = %62, %102, %82, %77
  store i32 1, ptr %11, align 4
  br label %110

110:                                              ; preds = %109, %59
  call void @llvm.lifetime.end.p0(i64 8, ptr %10) #8
  call void @llvm.lifetime.end.p0(i64 8, ptr %9) #8
  call void @llvm.lifetime.end.p0(i64 8, ptr %8) #8
  call void @llvm.lifetime.end.p0(i64 8, ptr %7) #8
  %111 = load { double, double }, ptr %4, align 8
  ret { double, double } %111
}