; Function Attrs: mustprogress uwtable
define internal { double, double } @_ZL14gnom_s_forward5PJ_LPP8PJconsts(double %0, double %1, ptr noundef %2) #0 {
  %4 = getelementptr inbounds nuw i8, ptr %2, i64 88
  %5 = load ptr, ptr %4, align 8, !tbaa !3
  %6 = tail call double @sin(double noundef %1) #9, !tbaa !42
  %7 = tail call double @cos(double noundef %1) #9, !tbaa !42
  %8 = tail call double @cos(double noundef %0) #9, !tbaa !42
  %9 = getelementptr inbounds nuw i8, ptr %5, i64 16
  %10 = load i32, ptr %9, align 8, !tbaa !38
  switch i32 %10, label %.thread [
    i32 2, label %11
    i32 3, label %13
    i32 1, label %20
    i32 0, label %22
  ]

11:                                               ; preds = %3
  %12 = fmul double %7, %8
  br label %22

13:                                               ; preds = %3
  %14 = load double, ptr %5, align 8, !tbaa !43
  %15 = getelementptr inbounds nuw i8, ptr %5, i64 8
  %16 = load double, ptr %15, align 8, !tbaa !44
  %17 = fmul double %7, %16
  %18 = fmul double %8, %17
  %19 = tail call double @llvm.fmuladd.f64(double %14, double %6, double %18)
  br label %22

20:                                               ; preds = %3
  %21 = fneg double %6
  br label %22

22:                                               ; preds = %3, %20, %13, %11
  %.sroa.326.0 = phi double [ %21, %20 ], [ %19, %13 ], [ %12, %11 ], [ %6, %3 ]
  %23 = fcmp ugt double %.sroa.326.0, 1.000000e-10
  br i1 %23, label %25, label %.thread

.thread:                                          ; preds = %3, %22
  %.sroa.326.032 = phi double [ %.sroa.326.0, %22 ], [ 0.000000e+00, %3 ]
  %24 = tail call i32 @proj_errno_set(ptr noundef nonnull %2, i32 noundef 2050)
  br label %46

25:                                               ; preds = %22
  %26 = fdiv double 1.000000e+00, %.sroa.326.0
  %27 = fmul double %7, %26
  %28 = tail call double @sin(double noundef %0) #9, !tbaa !42
  %29 = fmul double %27, %28
  switch i32 %10, label %default.unreachable [
    i32 2, label %30
    i32 3, label %32
    i32 0, label %41
    i32 1, label %43
  ]

30:                                               ; preds = %25
  %31 = fmul double %6, %26
  br label %46

32:                                               ; preds = %25
  %33 = getelementptr inbounds nuw i8, ptr %5, i64 8
  %34 = load double, ptr %33, align 8, !tbaa !44
  %35 = load double, ptr %5, align 8, !tbaa !43
  %36 = fmul double %7, %35
  %37 = fneg double %8
  %38 = fmul double %36, %37
  %39 = tail call double @llvm.fmuladd.f64(double %34, double %6, double %38)
  %40 = fmul double %26, %39
  br label %46

41:                                               ; preds = %25
  %42 = fneg double %8
  br label %43

43:                                               ; preds = %41, %25
  %.0 = phi double [ %8, %25 ], [ %42, %41 ]
  %44 = fmul double %7, %.0
  %45 = fmul double %26, %44
  br label %46

default.unreachable:                              ; preds = %25
  unreachable

46:                                               ; preds = %30, %32, %43, %.thread
  %.sroa.326.1 = phi double [ %.sroa.326.032, %.thread ], [ %45, %43 ], [ %40, %32 ], [ %31, %30 ]
  %.sroa.025.0 = phi double [ 0.000000e+00, %.thread ], [ %29, %43 ], [ %29, %32 ], [ %29, %30 ]
  %.fca.0.insert = insertvalue { double, double } poison, double %.sroa.025.0, 0
  %.fca.1.insert = insertvalue { double, double } %.fca.0.insert, double %.sroa.326.1, 1
  ret { double, double } %.fca.1.insert
}